target datalayout = "e-m:e-p270:32:32-p271:32:32-p272:64:64-i64:64-i128:128-f80:128-n8:16:32:64-S128"
target triple = "x86_64-pc-linux-gnu"

%struct.GlyphInfo = type { float, float, i16, i16, i16, i8, float, float, ptr, ptr }
%struct._CacheCellInfo = type { ptr, ptr, ptr, ptr, i32, i32, i32, i32, i32, float, float, float, float }

; Function Attrs: nounwind uwtable
define hidden void @AccelGlyphCache_RemoveCellInfo(ptr noundef %0, ptr noundef %1) #0 {
  %3 = alloca ptr, align 8
  %4 = alloca ptr, align 8
  %5 = alloca ptr, align 8
  %6 = alloca ptr, align 8
  store ptr %0, ptr %3, align 8
  store ptr %1, ptr %4, align 8
  %7 = load ptr, ptr %3, align 8
  %8 = getelementptr inbounds %struct.GlyphInfo, ptr %7, i32 0, i32 8
  %9 = load ptr, ptr %8, align 8
  store ptr %9, ptr %5, align 8
  store ptr null, ptr %6, align 8
  br label %10

10:                                               ; preds = %39, %2
  %11 = load ptr, ptr %5, align 8
  %12 = load ptr, ptr %4, align 8
  %13 = icmp eq ptr %11, %12
  br i1 %13, label %14, label %34

14:                                               ; preds = %10
  %15 = load ptr, ptr %6, align 8
  %16 = icmp eq ptr %15, null
  br i1 %16, label %17, label %23

17:                                               ; preds = %14
  %18 = load ptr, ptr %5, align 8
  %19 = getelementptr inbounds %struct._CacheCellInfo, ptr %18, i32 0, i32 3
  %20 = load ptr, ptr %19, align 8
  %21 = load ptr, ptr %3, align 8
  %22 = getelementptr inbounds %struct.GlyphInfo, ptr %21, i32 0, i32 8
  store ptr %20, ptr %22, align 8
  br label %29

23:                                               ; preds = %14
  %24 = load ptr, ptr %5, align 8
  %25 = getelementptr inbounds %struct._CacheCellInfo, ptr %24, i32 0, i32 3
  %26 = load ptr, ptr %25, align 8
  %27 = load ptr, ptr %6, align 8
  %28 = getelementptr inbounds %struct._CacheCellInfo, ptr %27, i32 0, i32 3
  store ptr %26, ptr %28, align 8
  br label %29

29:                                               ; preds = %23, %17
  %30 = load ptr, ptr %5, align 8
  %31 = getelementptr inbounds %struct._CacheCellInfo, ptr %30, i32 0, i32 1
  store ptr null, ptr %31, align 8
  %32 = load ptr, ptr %5, align 8
  %33 = getelementptr inbounds %struct._CacheCellInfo, ptr %32, i32 0, i32 3
  store ptr null, ptr %33, align 8
  br label %42

34:                                               ; preds = %10
  %35 = load ptr, ptr %5, align 8
  store ptr %35, ptr %6, align 8
  %36 = load ptr, ptr %5, align 8
  %37 = getelementptr inbounds %struct._CacheCellInfo, ptr %36, i32 0, i32 3
  %38 = load ptr, ptr %37, align 8
  store ptr %38, ptr %5, align 8
  br label %39

39:                                               ; preds = %34
  %40 = load ptr, ptr %5, align 8
  %41 = icmp ne ptr %40, null
  br i1 %41, label %10, label %42, !llvm.loop !8

42:                                               ; preds = %39, %29
  ret void
}