; Function Attrs: nofree norecurse nosync nounwind memory(readwrite, inaccessiblemem: none) uwtable
define hidden void @AccelGlyphCache_RemoveCellInfo(ptr nocapture noundef %0, ptr noundef readnone %1) local_unnamed_addr #3 {
  %3 = getelementptr inbounds i8, ptr %0, i64 24
  %4 = load ptr, ptr %3, align 8
  %5 = icmp eq ptr %4, %1
  br i1 %5, label %8, label %.lr.ph

6:                                                ; preds = %.lr.ph
  %7 = icmp eq ptr %18, %1
  br i1 %7, label %._crit_edge, label %.lr.ph, !llvm.loop !8

8:                                                ; preds = %2
  %9 = getelementptr inbounds i8, ptr %4, i64 24
  %10 = load ptr, ptr %9, align 8
  store ptr %10, ptr %3, align 8
  br label %14

._crit_edge:                                      ; preds = %6
  %11 = getelementptr inbounds i8, ptr %18, i64 24
  %12 = load ptr, ptr %11, align 8
  %13 = getelementptr inbounds i8, ptr %.01317, i64 24
  store ptr %12, ptr %13, align 8
  br label %14

14:                                               ; preds = %._crit_edge, %8
  %.013.lcssa23 = phi ptr [ %18, %._crit_edge ], [ %4, %8 ]
  %15 = getelementptr inbounds i8, ptr %.013.lcssa23, i64 8
  store ptr null, ptr %15, align 8
  %16 = getelementptr inbounds i8, ptr %.013.lcssa23, i64 24
  store ptr null, ptr %16, align 8
  br label %.loopexit

.lr.ph:                                           ; preds = %2, %6
  %.01317 = phi ptr [ %18, %6 ], [ %4, %2 ]
  %17 = getelementptr inbounds i8, ptr %.01317, i64 24
  %18 = load ptr, ptr %17, align 8
  %.not = icmp eq ptr %18, null
  br i1 %.not, label %.loopexit, label %6, !llvm.loop !8

.loopexit:                                        ; preds = %.lr.ph, %14
  ret void
}